target datalayout = "e-m:e-p270:32:32-p271:32:32-p272:64:64-i64:64-i128:128-f80:128-n8:16:32:64-S128"
target triple = "x86_64-pc-linux-gnu"

%struct.expert_field = type { i32, i32 }
%struct._packet_info = type { ptr, ptr, i32, i32, %struct.nstime_t, %struct.nstime_t, %struct.nstime_t, i8, ptr, ptr, ptr, ptr, %struct._address, %struct._address, %struct._address, %struct._address, %struct._address, %struct._address, i32, ptr, i8, [3 x i8], %struct.anon, i32, i32, i32, i32, ptr, i8, ptr, ptr, i16, i16, i32, i32, i16, i32, i32, ptr, ptr, ptr, i8, i8, i16, i16, i16, i32, i16, i16, ptr, ptr, ptr, ptr, ptr, i32, i32 }
%struct.nstime_t = type { i64, i32 }
%struct._address = type { i32, i32, ptr, ptr }
%struct.anon = type { i8, [3 x i8] }

@hf_giop_repoid = internal global i32 0, align 4
@hf_giop_typecode_count = internal global i32 0, align 4
@hf_giop_typecode_default_used = internal global i32 0, align 4
@hf_giop_typecode_member_name = internal global i32 0, align 4
@hf_giop_typecode_name = internal global i32 0, align 4
@ei_giop_offset_error = internal global %struct.expert_field zeroinitializer, align 4

; Function Attrs: null_pointer_is_valid sspstrong uwtable
define i32 @get_CDR_typeCode(ptr noundef %0, ptr noundef %1, ptr noundef %2, ptr noundef %3, i1 noundef zeroext %4, i32 noundef %5, ptr noundef %6) #0 {
  %8 = alloca ptr, align 8
  %9 = alloca ptr, align 8
  %10 = alloca ptr, align 8
  %11 = alloca ptr, align 8
  %12 = alloca i8, align 1
  %13 = alloca i32, align 4
  %14 = alloca ptr, align 8
  %15 = alloca ptr, align 8
  %16 = alloca i32, align 4
  store ptr %0, ptr %8, align 8
  store ptr %1, ptr %9, align 8
  store ptr %2, ptr %10, align 8
  store ptr %3, ptr %11, align 8
  %17 = zext i1 %4 to i8
  store i8 %17, ptr %12, align 1
  store i32 %5, ptr %13, align 4
  store ptr %6, ptr %14, align 8
  call void @llvm.lifetime.start.p0(i64 8, ptr %15) #14
  %18 = load ptr, ptr %9, align 8
  %19 = getelementptr inbounds nuw %struct._packet_info, ptr %18, i32 0, i32 51
  %20 = load ptr, ptr %19, align 8
  %21 = call noalias ptr @wmem_list_new(ptr noundef %20)
  store ptr %21, ptr %15, align 8
  call void @llvm.lifetime.start.p0(i64 4, ptr %16) #14
  %22 = load ptr, ptr %8, align 8
  %23 = load ptr, ptr %9, align 8
  %24 = load ptr, ptr %10, align 8
  %25 = load ptr, ptr %11, align 8
  %26 = load i8, ptr %12, align 1, !range !8, !noundef !9
  %27 = trunc i8 %26 to i1
  %28 = load i32, ptr %13, align 4
  %29 = load ptr, ptr %14, align 8
  %30 = load ptr, ptr %15, align 8
  %31 = call i32 @get_CDR_typeCode_with_params(ptr noundef %22, ptr noundef %23, ptr noundef %24, ptr noundef %25, i1 noundef zeroext %27, i32 noundef %28, ptr noundef %29, ptr noundef %30)
  store i32 %31, ptr %16, align 4
  %32 = load ptr, ptr %15, align 8
  call void @wmem_destroy_list(ptr noundef %32)
  %33 = load i32, ptr %16, align 4
  call void @llvm.lifetime.end.p0(i64 4, ptr %16) #14
  call void @llvm.lifetime.end.p0(i64 8, ptr %15) #14
  ret i32 %33
}

; Function Attrs: null_pointer_is_valid sspstrong uwtable
define i32 @get_CDR_ulong(ptr noundef %0, ptr noundef %1, i1 noundef zeroext %2, i32 noundef %3) #0 {
  %5 = alloca ptr, align 8
  %6 = alloca ptr, align 8
  %7 = alloca i8, align 1
  %8 = alloca i32, align 4
  %9 = alloca i32, align 4
  store ptr %0, ptr %5, align 8
  store ptr %1, ptr %6, align 8
  %10 = zext i1 %2 to i8
  store i8 %10, ptr %7, align 1
  store i32 %3, ptr %8, align 4
  call void @llvm.lifetime.start.p0(i64 4, ptr %9) #14
  br label %11

11:                                               ; preds = %18, %4
  %12 = load ptr, ptr %6, align 8
  %13 = load i32, ptr %12, align 4
  %14 = load i32, ptr %8, align 4
  %15 = add i32 %13, %14
  %16 = srem i32 %15, 4
  %17 = icmp ne i32 %16, 0
  br i1 %17, label %18, label %22

18:                                               ; preds = %11
  %19 = load ptr, ptr %6, align 8
  %20 = load i32, ptr %19, align 4
  %21 = add i32 %20, 1
  store i32 %21, ptr %19, align 4
  br label %11, !llvm.loop !10

22:                                               ; preds = %11
  %23 = load i8, ptr %7, align 1, !range !8, !noundef !9
  %24 = trunc i8 %23 to i1
  br i1 %24, label %25, label %30

25:                                               ; preds = %22
  %26 = load ptr, ptr %5, align 8
  %27 = load ptr, ptr %6, align 8
  %28 = load i32, ptr %27, align 4
  %29 = call i32 @tvb_get_ntohl(ptr noundef %26, i32 noundef %28)
  br label %35

30:                                               ; preds = %22
  %31 = load ptr, ptr %5, align 8
  %32 = load ptr, ptr %6, align 8
  %33 = load i32, ptr %32, align 4
  %34 = call i32 @tvb_get_letohl(ptr noundef %31, i32 noundef %33)
  br label %35

35:                                               ; preds = %30, %25
  %36 = phi i32 [ %29, %25 ], [ %34, %30 ]
  store i32 %36, ptr %9, align 4
  %37 = load ptr, ptr %6, align 8
  %38 = load i32, ptr %37, align 4
  %39 = add i32 %38, 4
  store i32 %39, ptr %37, align 4
  %40 = load i32, ptr %9, align 4
  call void @llvm.lifetime.end.p0(i64 4, ptr %9) #14
  ret i32 %40
}

; Function Attrs: null_pointer_is_valid sspstrong uwtable
define i32 @get_CDR_long(ptr noundef %0, ptr noundef %1, i1 noundef zeroext %2, i32 noundef %3) #0 {
  %5 = alloca ptr, align 8
  %6 = alloca ptr, align 8
  %7 = alloca i8, align 1
  %8 = alloca i32, align 4
  %9 = alloca i32, align 4
  store ptr %0, ptr %5, align 8
  store ptr %1, ptr %6, align 8
  %10 = zext i1 %2 to i8
  store i8 %10, ptr %7, align 1
  store i32 %3, ptr %8, align 4
  call void @llvm.lifetime.start.p0(i64 4, ptr %9) #14
  br label %11

11:                                               ; preds = %18, %4
  %12 = load ptr, ptr %6, align 8
  %13 = load i32, ptr %12, align 4
  %14 = load i32, ptr %8, align 4
  %15 = add i32 %13, %14
  %16 = srem i32 %15, 4
  %17 = icmp ne i32 %16, 0
  br i1 %17, label %18, label %22

18:                                               ; preds = %11
  %19 = load ptr, ptr %6, align 8
  %20 = load i32, ptr %19, align 4
  %21 = add i32 %20, 1
  store i32 %21, ptr %19, align 4
  br label %11, !llvm.loop !22

22:                                               ; preds = %11
  %23 = load i8, ptr %7, align 1, !range !8, !noundef !9
  %24 = trunc i8 %23 to i1
  br i1 %24, label %25, label %30

25:                                               ; preds = %22
  %26 = load ptr, ptr %5, align 8
  %27 = load ptr, ptr %6, align 8
  %28 = load i32, ptr %27, align 4
  %29 = call i32 @tvb_get_ntohl(ptr noundef %26, i32 noundef %28)
  br label %35

30:                                               ; preds = %22
  %31 = load ptr, ptr %5, align 8
  %32 = load ptr, ptr %6, align 8
  %33 = load i32, ptr %32, align 4
  %34 = call i32 @tvb_get_letohl(ptr noundef %31, i32 noundef %33)
  br label %35

35:                                               ; preds = %30, %25
  %36 = phi i32 [ %29, %25 ], [ %34, %30 ]
  store i32 %36, ptr %9, align 4
  %37 = load ptr, ptr %6, align 8
  %38 = load i32, ptr %37, align 4
  %39 = add i32 %38, 4
  store i32 %39, ptr %37, align 4
  %40 = load i32, ptr %9, align 4
  call void @llvm.lifetime.end.p0(i64 4, ptr %9) #14
  ret i32 %40
}

; Function Attrs: null_pointer_is_valid sspstrong uwtable
define internal void @dissect_tk_union_params(ptr noundef %0, ptr noundef %1, ptr noundef %2, ptr noundef %3, ptr noundef %4, i1 noundef zeroext %5, i32 noundef %6, ptr noundef %7) #0 {
  %9 = alloca ptr, align 8
  %10 = alloca ptr, align 8
  %11 = alloca ptr, align 8
  %12 = alloca ptr, align 8
  %13 = alloca ptr, align 8
  %14 = alloca i8, align 1
  %15 = alloca i32, align 4
  %16 = alloca ptr, align 8
  %17 = alloca i32, align 4
  %18 = alloca i8, align 1
  %19 = alloca i32, align 4
  %20 = alloca i32, align 4
  %21 = alloca i32, align 4
  %22 = alloca i32, align 4
  %23 = alloca ptr, align 8
  %24 = alloca ptr, align 8
  %25 = alloca ptr, align 8
  %26 = alloca i32, align 4
  store ptr %0, ptr %9, align 8
  store ptr %1, ptr %10, align 8
  store ptr %2, ptr %11, align 8
  store ptr %3, ptr %12, align 8
  store ptr %4, ptr %13, align 8
  %27 = zext i1 %5 to i8
  store i8 %27, ptr %14, align 1
  store i32 %6, ptr %15, align 4
  store ptr %7, ptr %16, align 8
  call void @llvm.lifetime.start.p0(i64 4, ptr %17) #14
  call void @llvm.lifetime.start.p0(i64 1, ptr %18) #14
  call void @llvm.lifetime.start.p0(i64 4, ptr %19) #14
  call void @llvm.lifetime.start.p0(i64 4, ptr %20) #14
  call void @llvm.lifetime.start.p0(i64 4, ptr %21) #14
  call void @llvm.lifetime.start.p0(i64 4, ptr %22) #14
  %28 = load ptr, ptr %9, align 8
  %29 = load ptr, ptr %11, align 8
  %30 = load ptr, ptr %13, align 8
  %31 = load i8, ptr %14, align 1, !range !8, !noundef !9
  %32 = trunc i8 %31 to i1
  %33 = load i32, ptr %15, align 4
  %34 = call i32 @get_CDR_encap_info(ptr noundef %28, ptr noundef %29, ptr noundef %30, i1 noundef zeroext %32, i32 noundef %33, ptr noundef %18, ptr noundef %17)
  call void @llvm.lifetime.start.p0(i64 8, ptr %23) #14
  store ptr null, ptr %23, align 8
  %35 = load ptr, ptr %9, align 8
  %36 = load ptr, ptr %11, align 8
  %37 = load ptr, ptr %13, align 8
  %38 = load i8, ptr %18, align 1, !range !8, !noundef !9
  %39 = trunc i8 %38 to i1
  %40 = load i32, ptr %17, align 4
  %41 = load i32, ptr @hf_giop_repoid, align 4
  call void @dissect_typecode_string_param(ptr noundef %35, ptr noundef %36, ptr noundef %37, i1 noundef zeroext %39, i32 noundef %40, i32 noundef %41, ptr noundef %23)
  %42 = load ptr, ptr %9, align 8
  %43 = load ptr, ptr %11, align 8
  %44 = load ptr, ptr %13, align 8
  %45 = load i8, ptr %18, align 1, !range !8, !noundef !9
  %46 = trunc i8 %45 to i1
  %47 = load i32, ptr %17, align 4
  %48 = load i32, ptr @hf_giop_typecode_name, align 4
  call void @dissect_typecode_string_param(ptr noundef %42, ptr noundef %43, ptr noundef %44, i1 noundef zeroext %46, i32 noundef %47, i32 noundef %48, ptr noundef %23)
  call void @llvm.lifetime.start.p0(i64 8, ptr %24) #14
  %49 = load ptr, ptr %10, align 8
  %50 = getelementptr inbounds nuw %struct._packet_info, ptr %49, i32 0, i32 51
  %51 = load ptr, ptr %50, align 8
  %52 = call noalias ptr @wmem_list_new(ptr noundef %51)
  store ptr %52, ptr %24, align 8
  %53 = load ptr, ptr %9, align 8
  %54 = load ptr, ptr %10, align 8
  %55 = load ptr, ptr %11, align 8
  %56 = load ptr, ptr %13, align 8
  %57 = load i8, ptr %18, align 1, !range !8, !noundef !9
  %58 = trunc i8 %57 to i1
  %59 = load i32, ptr %17, align 4
  %60 = load ptr, ptr %16, align 8
  %61 = load ptr, ptr %24, align 8
  %62 = call i32 @get_CDR_typeCode_with_params(ptr noundef %53, ptr noundef %54, ptr noundef %55, ptr noundef %56, i1 noundef zeroext %58, i32 noundef %59, ptr noundef %60, ptr noundef %61)
  store i32 %62, ptr %19, align 4
  %63 = load ptr, ptr %9, align 8
  %64 = load ptr, ptr %13, align 8
  %65 = load i8, ptr %18, align 1, !range !8, !noundef !9
  %66 = trunc i8 %65 to i1
  %67 = load i32, ptr %17, align 4
  %68 = call i32 @get_CDR_long(ptr noundef %63, ptr noundef %64, i1 noundef zeroext %66, i32 noundef %67)
  store i32 %68, ptr %20, align 4
  %69 = load ptr, ptr %11, align 8
  %70 = load i32, ptr @hf_giop_typecode_default_used, align 4
  %71 = load ptr, ptr %9, align 8
  %72 = load ptr, ptr %13, align 8
  %73 = load i32, ptr %72, align 4
  %74 = sub i32 %73, 4
  %75 = load i32, ptr %20, align 4
  %76 = call ptr @proto_tree_add_int(ptr noundef %69, i32 noundef %70, ptr noundef %71, i32 noundef %74, i32 noundef 4, i32 noundef %75)
  %77 = load ptr, ptr %9, align 8
  %78 = load ptr, ptr %13, align 8
  %79 = load i8, ptr %18, align 1, !range !8, !noundef !9
  %80 = trunc i8 %79 to i1
  %81 = load i32, ptr %17, align 4
  %82 = call i32 @get_CDR_ulong(ptr noundef %77, ptr noundef %78, i1 noundef zeroext %80, i32 noundef %81)
  store i32 %82, ptr %21, align 4
  %83 = load ptr, ptr %11, align 8
  %84 = load i32, ptr @hf_giop_typecode_count, align 4
  %85 = load ptr, ptr %9, align 8
  %86 = load ptr, ptr %13, align 8
  %87 = load i32, ptr %86, align 4
  %88 = sub i32 %87, 4
  %89 = load i32, ptr %21, align 4
  %90 = call ptr @proto_tree_add_uint(ptr noundef %83, i32 noundef %84, ptr noundef %85, i32 noundef %88, i32 noundef 4, i32 noundef %89)
  call void @llvm.lifetime.start.p0(i64 8, ptr %25) #14
  %91 = load ptr, ptr %23, align 8
  store ptr %91, ptr %25, align 8
  call void @llvm.lifetime.start.p0(i64 4, ptr %26) #14
  %92 = load ptr, ptr %13, align 8
  %93 = load i32, ptr %92, align 4
  store i32 %93, ptr %26, align 4
  store i32 0, ptr %22, align 4
  br label %94

94:                                               ; preds = %136, %8
  %95 = load i32, ptr %22, align 4
  %96 = load i32, ptr %21, align 4
  %97 = icmp ult i32 %95, %96
  br i1 %97, label %98, label %139

98:                                               ; preds = %94
  %99 = load ptr, ptr %9, align 8
  %100 = load ptr, ptr %10, align 8
  %101 = load ptr, ptr %11, align 8
  %102 = load ptr, ptr %12, align 8
  %103 = load ptr, ptr %13, align 8
  %104 = load i8, ptr %18, align 1, !range !8, !noundef !9
  %105 = trunc i8 %104 to i1
  %106 = load i32, ptr %17, align 4
  %107 = load ptr, ptr %16, align 8
  %108 = load i32, ptr %19, align 4
  %109 = load ptr, ptr %24, align 8
  %110 = load ptr, ptr %25, align 8
  call void @dissect_data_for_typecode_with_params(ptr noundef %99, ptr noundef %100, ptr noundef %101, ptr noundef %102, ptr noundef %103, i1 noundef zeroext %105, i32 noundef %106, ptr noundef %107, i32 noundef %108, ptr noundef %109, ptr noundef %110)
  %111 = load ptr, ptr %13, align 8
  %112 = load i32, ptr %111, align 4
  %113 = load i32, ptr %26, align 4
  %114 = icmp sle i32 %112, %113
  br i1 %114, label %115, label %119

115:                                              ; preds = %98
  %116 = load ptr, ptr %10, align 8
  %117 = load ptr, ptr %11, align 8
  %118 = call ptr @expert_add_info(ptr noundef %116, ptr noundef %117, ptr noundef @ei_giop_offset_error)
  br label %139

119:                                              ; preds = %98
  %120 = load ptr, ptr %9, align 8
  %121 = load ptr, ptr %11, align 8
  %122 = load ptr, ptr %13, align 8
  %123 = load i8, ptr %18, align 1, !range !8, !noundef !9
  %124 = trunc i8 %123 to i1
  %125 = load i32, ptr %17, align 4
  %126 = load i32, ptr @hf_giop_typecode_member_name, align 4
  call void @dissect_typecode_string_param(ptr noundef %120, ptr noundef %121, ptr noundef %122, i1 noundef zeroext %124, i32 noundef %125, i32 noundef %126, ptr noundef %23)
  %127 = load ptr, ptr %9, align 8
  %128 = load ptr, ptr %10, align 8
  %129 = load ptr, ptr %11, align 8
  %130 = load ptr, ptr %13, align 8
  %131 = load i8, ptr %18, align 1, !range !8, !noundef !9
  %132 = trunc i8 %131 to i1
  %133 = load i32, ptr %17, align 4
  %134 = load ptr, ptr %16, align 8
  %135 = call i32 @get_CDR_typeCode(ptr noundef %127, ptr noundef %128, ptr noundef %129, ptr noundef %130, i1 noundef zeroext %132, i32 noundef %133, ptr noundef %134)
  br label %136

136:                                              ; preds = %119
  %137 = load i32, ptr %22, align 4
  %138 = add i32 %137, 1
  store i32 %138, ptr %22, align 4
  br label %94, !llvm.loop !29

139:                                              ; preds = %115, %94
  call void @llvm.lifetime.end.p0(i64 4, ptr %26) #14
  call void @llvm.lifetime.end.p0(i64 8, ptr %25) #14
  call void @llvm.lifetime.end.p0(i64 8, ptr %24) #14
  call void @llvm.lifetime.end.p0(i64 8, ptr %23) #14
  call void @llvm.lifetime.end.p0(i64 4, ptr %22) #14
  call void @llvm.lifetime.end.p0(i64 4, ptr %21) #14
  call void @llvm.lifetime.end.p0(i64 4, ptr %20) #14
  call void @llvm.lifetime.end.p0(i64 4, ptr %19) #14
  call void @llvm.lifetime.end.p0(i64 1, ptr %18) #14
  call void @llvm.lifetime.end.p0(i64 4, ptr %17) #14
  ret void
}