; Function Attrs: null_pointer_is_valid sspstrong uwtable
define internal fastcc void @dissect_tk_union_params(ptr noundef %0, ptr noundef %1, ptr noundef %2, ptr noundef %3, ptr noundef captures(none) %4, i1 noundef zeroext %5, i32 noundef %6, ptr noundef readonly captures(none) %7) unnamed_addr #0 {
  %9 = alloca i32, align 4
  %10 = alloca i8, align 1
  %11 = alloca ptr, align 8
  call void @llvm.lifetime.start.p0(i64 4, ptr nonnull %9) #17
  call void @llvm.lifetime.start.p0(i64 1, ptr nonnull %10) #17
  %12 = call i32 @get_CDR_encap_info(ptr noundef %0, ptr noundef %2, ptr noundef %4, i1 noundef zeroext %5, i32 noundef %6, ptr noundef nonnull %10, ptr noundef nonnull %9)
  call void @llvm.lifetime.start.p0(i64 8, ptr nonnull %11) #17
  %13 = load i8, ptr %10, align 1, !range !29, !noundef !30
  %14 = trunc nuw i8 %13 to i1
  %15 = load i32, ptr %9, align 4
  %16 = load i32, ptr @hf_giop_repoid, align 4
  call fastcc void @dissect_typecode_string_param(ptr noundef %0, ptr noundef %2, ptr noundef %4, i1 noundef zeroext %14, i32 noundef %15, i32 noundef %16, ptr noundef nonnull %11)
  %17 = load i32, ptr @hf_giop_typecode_name, align 4
  call fastcc void @dissect_typecode_string_param(ptr noundef %0, ptr noundef %2, ptr noundef %4, i1 noundef zeroext %14, i32 noundef %15, i32 noundef %17, ptr noundef nonnull %11)
  %18 = getelementptr inbounds nuw i8, ptr %1, i64 408
  %19 = load ptr, ptr %18, align 8
  %20 = tail call noalias ptr @wmem_list_new(ptr noundef %19)
  %21 = tail call fastcc i32 @get_CDR_typeCode_with_params(ptr noundef %0, ptr noundef %1, ptr noundef %2, ptr noundef %4, i1 noundef zeroext %14, i32 noundef %15, ptr noundef %7, ptr noundef %20)
  %.promoted.i = load i32, ptr %4, align 4
  %22 = add i32 %.promoted.i, %15
  %23 = and i32 %22, 3
  %.not9.i = icmp eq i32 %23, 0
  br i1 %.not9.i, label %25, label %.lr.ph.preheader.i

.lr.ph.preheader.i:                               ; preds = %8
  %24 = or i32 %22, -4
  %sub = sub i32 %.promoted.i, %24
  store i32 %sub, ptr %4, align 4
  br label %25

25:                                               ; preds = %.lr.ph.preheader.i, %8
  %.lcssa.i = phi i32 [ %sub, %.lr.ph.preheader.i ], [ %.promoted.i, %8 ]
  br i1 %14, label %26, label %28

26:                                               ; preds = %25
  %27 = tail call i32 @tvb_get_ntohl(ptr noundef %0, i32 noundef %.lcssa.i)
  br label %get_CDR_long.exit

28:                                               ; preds = %25
  %29 = tail call i32 @tvb_get_letohl(ptr noundef %0, i32 noundef %.lcssa.i)
  br label %get_CDR_long.exit

get_CDR_long.exit:                                ; preds = %26, %28
  %30 = phi i32 [ %27, %26 ], [ %29, %28 ]
  %31 = load i32, ptr %4, align 4
  %32 = add i32 %31, 4
  store i32 %32, ptr %4, align 4
  %33 = load i32, ptr @hf_giop_typecode_default_used, align 4
  %34 = tail call ptr @proto_tree_add_int(ptr noundef %2, i32 noundef %33, ptr noundef %0, i32 noundef %31, i32 noundef 4, i32 noundef %30)
  %.promoted.i54 = load i32, ptr %4, align 4
  %35 = add i32 %.promoted.i54, %15
  %36 = and i32 %35, 3
  %.not9.i55 = icmp eq i32 %36, 0
  br i1 %.not9.i55, label %38, label %.lr.ph.preheader.i56

.lr.ph.preheader.i56:                             ; preds = %get_CDR_long.exit
  %37 = or i32 %35, -4
  %sub60 = sub i32 %.promoted.i54, %37
  store i32 %sub60, ptr %4, align 4
  br label %38

38:                                               ; preds = %.lr.ph.preheader.i56, %get_CDR_long.exit
  %.lcssa.i58 = phi i32 [ %sub60, %.lr.ph.preheader.i56 ], [ %.promoted.i54, %get_CDR_long.exit ]
  br i1 %14, label %39, label %41

39:                                               ; preds = %38
  %40 = tail call i32 @tvb_get_ntohl(ptr noundef %0, i32 noundef %.lcssa.i58)
  br label %get_CDR_ulong.exit

41:                                               ; preds = %38
  %42 = tail call i32 @tvb_get_letohl(ptr noundef %0, i32 noundef %.lcssa.i58)
  br label %get_CDR_ulong.exit

get_CDR_ulong.exit:                               ; preds = %39, %41
  %43 = phi i32 [ %40, %39 ], [ %42, %41 ]
  %44 = load i32, ptr %4, align 4
  %45 = add i32 %44, 4
  store i32 %45, ptr %4, align 4
  %46 = load i32, ptr @hf_giop_typecode_count, align 4
  %47 = tail call ptr @proto_tree_add_uint(ptr noundef %2, i32 noundef %46, ptr noundef %0, i32 noundef %44, i32 noundef 4, i32 noundef %43)
  %48 = load ptr, ptr %11, align 8
  %49 = load i32, ptr %4, align 4
  %.not61 = icmp eq i32 %43, 0
  br i1 %.not61, label %.loopexit, label %.lr.ph

.lr.ph:                                           ; preds = %get_CDR_ulong.exit, %53
  %.059 = phi i32 [ %58, %53 ], [ 0, %get_CDR_ulong.exit ]
  tail call fastcc void @dissect_data_for_typecode_with_params(ptr noundef %0, ptr noundef %1, ptr noundef %2, ptr noundef %3, ptr noundef %4, i1 noundef zeroext %14, i32 noundef %15, ptr noundef %7, i32 noundef %21, ptr noundef %20, ptr noundef %48)
  %50 = load i32, ptr %4, align 4
  %.not = icmp sgt i32 %50, %49
  br i1 %.not, label %53, label %51

51:                                               ; preds = %.lr.ph
  %52 = tail call ptr @expert_add_info(ptr noundef %1, ptr noundef %2, ptr noundef nonnull @ei_giop_offset_error)
  br label %.loopexit

53:                                               ; preds = %.lr.ph
  %54 = load i32, ptr @hf_giop_typecode_member_name, align 4
  call fastcc void @dissect_typecode_string_param(ptr noundef %0, ptr noundef %2, ptr noundef %4, i1 noundef zeroext %14, i32 noundef %15, i32 noundef %54, ptr noundef nonnull %11)
  %55 = load ptr, ptr %18, align 8
  %56 = tail call noalias ptr @wmem_list_new(ptr noundef %55)
  %57 = tail call fastcc i32 @get_CDR_typeCode_with_params(ptr noundef %0, ptr noundef %1, ptr noundef %2, ptr noundef %4, i1 noundef zeroext %14, i32 noundef %15, ptr noundef %7, ptr noundef %56)
  tail call void @wmem_destroy_list(ptr noundef %56)
  %58 = add nuw i32 %.059, 1
  %exitcond.not = icmp eq i32 %58, %43
  br i1 %exitcond.not, label %.loopexit, label %.lr.ph, !llvm.loop !35

.loopexit:                                        ; preds = %53, %get_CDR_ulong.exit, %51
  call void @llvm.lifetime.end.p0(i64 8, ptr nonnull %11) #17
  call void @llvm.lifetime.end.p0(i64 1, ptr nonnull %10) #17
  call void @llvm.lifetime.end.p0(i64 4, ptr nonnull %9) #17
  ret void
}